; Function Attrs: mustprogress uwtable
define dso_local noundef ptr @_ZN4Luau6TxnLog7replaceEPKNS_11TypePackVarES1_(ptr noundef nonnull align 8 dereferenceable(128) %0, ptr noundef %1, ptr noundef %2) local_unnamed_addr #3 align 2 personality ptr @__gxx_personality_v0 {
  %4 = alloca %"class.Luau::Variant.30", align 8
  %5 = tail call noundef ptr @_ZN4Luau6TxnLog5queueEPKNS_11TypePackVarE(ptr noundef nonnull align 8 dereferenceable(128) %0, ptr noundef %1)
  call void @llvm.lifetime.start.p0(i64 72, ptr nonnull %4)
  %6 = load i32, ptr %2, align 8
  store i32 %6, ptr %4, align 8
  %7 = sext i32 %6 to i64
  %8 = getelementptr inbounds [8 x ptr], ptr @_ZZN4Luau7VariantIJNS_9Unifiable5BoundIPKNS_11TypePackVarEEENS1_5ErrorENS_12FreeTypePackENS_15GenericTypePackENS_8TypePackENS_16VariadicTypePackENS_15BlockedTypePackENS_26TypeFamilyInstanceTypePackEEEC1ERKSE_E5table, i64 0, i64 %7
  %9 = load ptr, ptr %8, align 8
  %10 = getelementptr inbounds i8, ptr %4, i64 8
  %11 = getelementptr inbounds i8, ptr %2, i64 8
  call void %9(ptr noundef nonnull %10, ptr noundef nonnull %11)
  %.not.i.i.i = icmp eq ptr %4, %5
  br i1 %.not.i.i.i, label %_ZN4Luau7VariantIJNS_9Unifiable5BoundIPKNS_11TypePackVarEEENS1_5ErrorENS_12FreeTypePackENS_15GenericTypePackENS_8TypePackENS_16VariadicTypePackENS_15BlockedTypePackENS_26TypeFamilyInstanceTypePackEEEaSEOSE_.exit.i.i, label %12

12:                                               ; preds = %3
  %13 = load i32, ptr %5, align 8
  %14 = sext i32 %13 to i64
  %15 = getelementptr inbounds [8 x ptr], ptr @_ZN4Luau7VariantIJNS_9Unifiable5BoundIPKNS_11TypePackVarEEENS1_5ErrorENS_12FreeTypePackENS_15GenericTypePackENS_8TypePackENS_16VariadicTypePackENS_15BlockedTypePackENS_26TypeFamilyInstanceTypePackEEE9tableDtorE, i64 0, i64 %14
  %16 = load ptr, ptr %15, align 8
  %17 = getelementptr inbounds i8, ptr %5, i64 8
  invoke void %16(ptr noundef nonnull %17)
          to label %.noexc.i.i unwind label %29

.noexc.i.i:                                       ; preds = %12
  %18 = load i32, ptr %4, align 8
  store i32 %18, ptr %5, align 8
  %19 = sext i32 %18 to i64
  %20 = getelementptr inbounds [8 x ptr], ptr @_ZN4Luau7VariantIJNS_9Unifiable5BoundIPKNS_11TypePackVarEEENS1_5ErrorENS_12FreeTypePackENS_15GenericTypePackENS_8TypePackENS_16VariadicTypePackENS_15BlockedTypePackENS_26TypeFamilyInstanceTypePackEEE9tableMoveE, i64 0, i64 %19
  %21 = load ptr, ptr %20, align 8
  invoke void %21(ptr noundef nonnull %17, ptr noundef nonnull %10)
          to label %_ZN4Luau7VariantIJNS_9Unifiable5BoundIPKNS_11TypePackVarEEENS1_5ErrorENS_12FreeTypePackENS_15GenericTypePackENS_8TypePackENS_16VariadicTypePackENS_15BlockedTypePackENS_26TypeFamilyInstanceTypePackEEEaSEOSE_.exit.i.i unwind label %29

_ZN4Luau7VariantIJNS_9Unifiable5BoundIPKNS_11TypePackVarEEENS1_5ErrorENS_12FreeTypePackENS_15GenericTypePackENS_8TypePackENS_16VariadicTypePackENS_15BlockedTypePackENS_26TypeFamilyInstanceTypePackEEEaSEOSE_.exit.i.i: ; preds = %.noexc.i.i, %3
  %22 = load i32, ptr %4, align 8
  %23 = sext i32 %22 to i64
  %24 = getelementptr inbounds [8 x ptr], ptr @_ZN4Luau7VariantIJNS_9Unifiable5BoundIPKNS_11TypePackVarEEENS1_5ErrorENS_12FreeTypePackENS_15GenericTypePackENS_8TypePackENS_16VariadicTypePackENS_15BlockedTypePackENS_26TypeFamilyInstanceTypePackEEE9tableDtorE, i64 0, i64 %23
  %25 = load ptr, ptr %24, align 8
  invoke void %25(ptr noundef nonnull %10)
          to label %_ZN4Luau11TypePackVar8reassignERKS0_.exit unwind label %26

26:                                               ; preds = %_ZN4Luau7VariantIJNS_9Unifiable5BoundIPKNS_11TypePackVarEEENS1_5ErrorENS_12FreeTypePackENS_15GenericTypePackENS_8TypePackENS_16VariadicTypePackENS_15BlockedTypePackENS_26TypeFamilyInstanceTypePackEEEaSEOSE_.exit.i.i
  %27 = landingpad { ptr, i32 }
          catch ptr null
  %28 = extractvalue { ptr, i32 } %27, 0
  call void @__clang_call_terminate(ptr %28) #22
  unreachable

29:                                               ; preds = %.noexc.i.i, %12
  %30 = landingpad { ptr, i32 }
          cleanup
  %31 = load i32, ptr %4, align 8
  %32 = sext i32 %31 to i64
  %33 = getelementptr inbounds [8 x ptr], ptr @_ZN4Luau7VariantIJNS_9Unifiable5BoundIPKNS_11TypePackVarEEENS1_5ErrorENS_12FreeTypePackENS_15GenericTypePackENS_8TypePackENS_16VariadicTypePackENS_15BlockedTypePackENS_26TypeFamilyInstanceTypePackEEE9tableDtorE, i64 0, i64 %32
  %34 = load ptr, ptr %33, align 8
  invoke void %34(ptr noundef nonnull %10)
          to label %_ZN4Luau7VariantIJNS_9Unifiable5BoundIPKNS_11TypePackVarEEENS1_5ErrorENS_12FreeTypePackENS_15GenericTypePackENS_8TypePackENS_16VariadicTypePackENS_15BlockedTypePackENS_26TypeFamilyInstanceTypePackEEED2Ev.exit4.i.i unwind label %35

35:                                               ; preds = %29
  %36 = landingpad { ptr, i32 }
          catch ptr null
  %37 = extractvalue { ptr, i32 } %36, 0
  call void @__clang_call_terminate(ptr %37) #22
  unreachable

_ZN4Luau7VariantIJNS_9Unifiable5BoundIPKNS_11TypePackVarEEENS1_5ErrorENS_12FreeTypePackENS_15GenericTypePackENS_8TypePackENS_16VariadicTypePackENS_15BlockedTypePackENS_26TypeFamilyInstanceTypePackEEED2Ev.exit4.i.i: ; preds = %29
  resume { ptr, i32 } %30

_ZN4Luau11TypePackVar8reassignERKS0_.exit:        ; preds = %_ZN4Luau7VariantIJNS_9Unifiable5BoundIPKNS_11TypePackVarEEENS1_5ErrorENS_12FreeTypePackENS_15GenericTypePackENS_8TypePackENS_16VariadicTypePackENS_15BlockedTypePackENS_26TypeFamilyInstanceTypePackEEEaSEOSE_.exit.i.i
  call void @llvm.lifetime.end.p0(i64 72, ptr nonnull %4)
  ret ptr %5
}